target datalayout = "e-m:e-p270:32:32-p271:32:32-p272:64:64-i64:64-i128:128-f80:128-n8:16:32:64-S128"
target triple = "x86_64-pc-linux-gnu"

%struct.boxf = type { %struct.pointf_s, %struct.pointf_s }
%struct.pointf_s = type { double, double }
%struct.Agobj_s = type { %struct.Agtag_s, ptr }
%struct.Agtag_s = type { i32, i64 }
%struct.Agraphinfo_t = type { %struct.Agrec_s, ptr, ptr, %struct.boxf, [4 x %struct.pointf_s], i8, i8, i8, i8, i32, double, double, i16, ptr, ptr, ptr, ptr, i32, ptr, ptr, ptr, ptr, i16, i16, i32, ptr, ptr, ptr, ptr, ptr, i32, ptr, ptr, %struct.nlist_t, ptr, ptr, i32, i32, i8, i8, i32, i32, i32, ptr, ptr, ptr, ptr, i8, i8, i8, i8, i8 }
%struct.Agrec_s = type { ptr, ptr }
%struct.nlist_t = type { ptr, i64 }
%struct.textlabel_t = type { ptr, ptr, ptr, i32, double, %struct.pointf_s, %struct.pointf_s, %struct.pointf_s, %union.anon.0, i8, i8, i8 }
%union.anon.0 = type { %struct.anon }
%struct.anon = type { ptr, i64 }

; Function Attrs: nounwind uwtable
define internal void @shiftGraph(ptr noundef %0, double noundef %1, double noundef %2) #0 {
  %4 = alloca ptr, align 8
  %5 = alloca double, align 8
  %6 = alloca double, align 8
  %7 = alloca ptr, align 8
  %8 = alloca %struct.boxf, align 8
  %9 = alloca i32, align 4
  store ptr %0, ptr %4, align 8, !tbaa !10
  store double %1, ptr %5, align 8, !tbaa !27
  store double %2, ptr %6, align 8, !tbaa !27
  call void @llvm.lifetime.start.p0(i64 8, ptr %7) #12
  call void @llvm.lifetime.start.p0(i64 32, ptr %8) #12
  %10 = load ptr, ptr %4, align 8, !tbaa !10
  %11 = getelementptr inbounds nuw %struct.Agobj_s, ptr %10, i32 0, i32 1
  %12 = load ptr, ptr %11, align 8, !tbaa !22
  %13 = getelementptr inbounds nuw %struct.Agraphinfo_t, ptr %12, i32 0, i32 3
  call void @llvm.memcpy.p0.p0.i64(ptr align 8 %8, ptr align 8 %13, i64 32, i1 false), !tbaa.struct !26
  call void @llvm.lifetime.start.p0(i64 4, ptr %9) #12
  %14 = load double, ptr %5, align 8, !tbaa !27
  %15 = getelementptr inbounds nuw %struct.boxf, ptr %8, i32 0, i32 0
  %16 = getelementptr inbounds nuw %struct.pointf_s, ptr %15, i32 0, i32 0
  %17 = load double, ptr %16, align 8, !tbaa !62
  %18 = fadd double %17, %14
  store double %18, ptr %16, align 8, !tbaa !62
  %19 = load double, ptr %5, align 8, !tbaa !27
  %20 = getelementptr inbounds nuw %struct.boxf, ptr %8, i32 0, i32 1
  %21 = getelementptr inbounds nuw %struct.pointf_s, ptr %20, i32 0, i32 0
  %22 = load double, ptr %21, align 8, !tbaa !64
  %23 = fadd double %22, %19
  store double %23, ptr %21, align 8, !tbaa !64
  %24 = load double, ptr %6, align 8, !tbaa !27
  %25 = getelementptr inbounds nuw %struct.boxf, ptr %8, i32 0, i32 0
  %26 = getelementptr inbounds nuw %struct.pointf_s, ptr %25, i32 0, i32 1
  %27 = load double, ptr %26, align 8, !tbaa !63
  %28 = fadd double %27, %24
  store double %28, ptr %26, align 8, !tbaa !63
  %29 = load double, ptr %6, align 8, !tbaa !27
  %30 = getelementptr inbounds nuw %struct.boxf, ptr %8, i32 0, i32 1
  %31 = getelementptr inbounds nuw %struct.pointf_s, ptr %30, i32 0, i32 1
  %32 = load double, ptr %31, align 8, !tbaa !65
  %33 = fadd double %32, %29
  store double %33, ptr %31, align 8, !tbaa !65
  %34 = load ptr, ptr %4, align 8, !tbaa !10
  %35 = getelementptr inbounds nuw %struct.Agobj_s, ptr %34, i32 0, i32 1
  %36 = load ptr, ptr %35, align 8, !tbaa !22
  %37 = getelementptr inbounds nuw %struct.Agraphinfo_t, ptr %36, i32 0, i32 3
  call void @llvm.memcpy.p0.p0.i64(ptr align 8 %37, ptr align 8 %8, i64 32, i1 false), !tbaa.struct !26
  %38 = load ptr, ptr %4, align 8, !tbaa !10
  %39 = getelementptr inbounds nuw %struct.Agobj_s, ptr %38, i32 0, i32 1
  %40 = load ptr, ptr %39, align 8, !tbaa !22
  %41 = getelementptr inbounds nuw %struct.Agraphinfo_t, ptr %40, i32 0, i32 2
  %42 = load ptr, ptr %41, align 8, !tbaa !146
  %43 = icmp ne ptr %42, null
  br i1 %43, label %44, label %74

44:                                               ; preds = %3
  %45 = load ptr, ptr %4, align 8, !tbaa !10
  %46 = getelementptr inbounds nuw %struct.Agobj_s, ptr %45, i32 0, i32 1
  %47 = load ptr, ptr %46, align 8, !tbaa !22
  %48 = getelementptr inbounds nuw %struct.Agraphinfo_t, ptr %47, i32 0, i32 2
  %49 = load ptr, ptr %48, align 8, !tbaa !146
  %50 = getelementptr inbounds nuw %struct.textlabel_t, ptr %49, i32 0, i32 10
  %51 = load i8, ptr %50, align 1, !tbaa !147, !range !40, !noundef !41
  %52 = trunc i8 %51 to i1
  br i1 %52, label %53, label %74

53:                                               ; preds = %44
  %54 = load double, ptr %5, align 8, !tbaa !27
  %55 = load ptr, ptr %4, align 8, !tbaa !10
  %56 = getelementptr inbounds nuw %struct.Agobj_s, ptr %55, i32 0, i32 1
  %57 = load ptr, ptr %56, align 8, !tbaa !22
  %58 = getelementptr inbounds nuw %struct.Agraphinfo_t, ptr %57, i32 0, i32 2
  %59 = load ptr, ptr %58, align 8, !tbaa !146
  %60 = getelementptr inbounds nuw %struct.textlabel_t, ptr %59, i32 0, i32 7
  %61 = getelementptr inbounds nuw %struct.pointf_s, ptr %60, i32 0, i32 0
  %62 = load double, ptr %61, align 8, !tbaa !114
  %63 = fadd double %62, %54
  store double %63, ptr %61, align 8, !tbaa !114
  %64 = load double, ptr %6, align 8, !tbaa !27
  %65 = load ptr, ptr %4, align 8, !tbaa !10
  %66 = getelementptr inbounds nuw %struct.Agobj_s, ptr %65, i32 0, i32 1
  %67 = load ptr, ptr %66, align 8, !tbaa !22
  %68 = getelementptr inbounds nuw %struct.Agraphinfo_t, ptr %67, i32 0, i32 2
  %69 = load ptr, ptr %68, align 8, !tbaa !146
  %70 = getelementptr inbounds nuw %struct.textlabel_t, ptr %69, i32 0, i32 7
  %71 = getelementptr inbounds nuw %struct.pointf_s, ptr %70, i32 0, i32 1
  %72 = load double, ptr %71, align 8, !tbaa !116
  %73 = fadd double %72, %64
  store double %73, ptr %71, align 8, !tbaa !116
  br label %74

74:                                               ; preds = %53, %44, %3
  store i32 1, ptr %9, align 4, !tbaa !35
  br label %75

75:                                               ; preds = %96, %74
  %76 = load i32, ptr %9, align 4, !tbaa !35
  %77 = load ptr, ptr %4, align 8, !tbaa !10
  %78 = getelementptr inbounds nuw %struct.Agobj_s, ptr %77, i32 0, i32 1
  %79 = load ptr, ptr %78, align 8, !tbaa !22
  %80 = getelementptr inbounds nuw %struct.Agraphinfo_t, ptr %79, i32 0, i32 24
  %81 = load i32, ptr %80, align 4, !tbaa !148
  %82 = icmp sle i32 %76, %81
  br i1 %82, label %83, label %99

83:                                               ; preds = %75
  %84 = load ptr, ptr %4, align 8, !tbaa !10
  %85 = getelementptr inbounds nuw %struct.Agobj_s, ptr %84, i32 0, i32 1
  %86 = load ptr, ptr %85, align 8, !tbaa !22
  %87 = getelementptr inbounds nuw %struct.Agraphinfo_t, ptr %86, i32 0, i32 25
  %88 = load ptr, ptr %87, align 8, !tbaa !149
  %89 = load i32, ptr %9, align 4, !tbaa !35
  %90 = sext i32 %89 to i64
  %91 = getelementptr inbounds ptr, ptr %88, i64 %90
  %92 = load ptr, ptr %91, align 8, !tbaa !10
  store ptr %92, ptr %7, align 8, !tbaa !10
  %93 = load ptr, ptr %7, align 8, !tbaa !10
  %94 = load double, ptr %5, align 8, !tbaa !27
  %95 = load double, ptr %6, align 8, !tbaa !27
  call void @shiftGraph(ptr noundef %93, double noundef %94, double noundef %95)
  br label %96

96:                                               ; preds = %83
  %97 = load i32, ptr %9, align 4, !tbaa !35
  %98 = add nsw i32 %97, 1
  store i32 %98, ptr %9, align 4, !tbaa !35
  br label %75, !llvm.loop !150

99:                                               ; preds = %75
  call void @llvm.lifetime.end.p0(i64 4, ptr %9) #12
  call void @llvm.lifetime.end.p0(i64 32, ptr %8) #12
  call void @llvm.lifetime.end.p0(i64 8, ptr %7) #12
  ret void
}