; Function Attrs: nofree nosync nounwind memory(readwrite, inaccessiblemem: none) uwtable
define internal fastcc void @shiftGraph(ptr noundef readonly captures(none) %0, double noundef %1, double noundef %2) unnamed_addr #6 {
  %4 = getelementptr inbounds nuw i8, ptr %0, i64 16
  %5 = load ptr, ptr %4, align 8, !tbaa !21
  %6 = getelementptr inbounds nuw i8, ptr %5, i64 32
  %.sroa.0.0.copyload = load double, ptr %6, align 8, !tbaa !52
  %.sroa.6.0..sroa_idx = getelementptr inbounds nuw i8, ptr %5, i64 40
  %.sroa.6.0.copyload = load double, ptr %.sroa.6.0..sroa_idx, align 8, !tbaa !52
  %.sroa.8.0..sroa_idx = getelementptr inbounds nuw i8, ptr %5, i64 48
  %.sroa.8.0.copyload = load double, ptr %.sroa.8.0..sroa_idx, align 8, !tbaa !52
  %.sroa.10.0..sroa_idx = getelementptr inbounds nuw i8, ptr %5, i64 56
  %.sroa.10.0.copyload = load double, ptr %.sroa.10.0..sroa_idx, align 8, !tbaa !52
  %7 = fadd double %1, %.sroa.0.0.copyload
  %8 = fadd double %1, %.sroa.8.0.copyload
  %9 = fadd double %2, %.sroa.6.0.copyload
  %10 = fadd double %2, %.sroa.10.0.copyload
  store double %7, ptr %6, align 8, !tbaa !52
  store double %9, ptr %.sroa.6.0..sroa_idx, align 8, !tbaa !52
  store double %8, ptr %.sroa.8.0..sroa_idx, align 8, !tbaa !52
  store double %10, ptr %.sroa.10.0..sroa_idx, align 8, !tbaa !52
  %11 = getelementptr inbounds nuw i8, ptr %5, i64 24
  %12 = load ptr, ptr %11, align 8, !tbaa !159
  %.not = icmp eq ptr %12, null
  br i1 %.not, label %24, label %13

13:                                               ; preds = %3
  %14 = getelementptr inbounds nuw i8, ptr %12, i64 105
  %15 = load i8, ptr %14, align 1, !tbaa !160, !range !19, !noundef !20
  %16 = trunc nuw i8 %15 to i1
  br i1 %16, label %17, label %24

17:                                               ; preds = %13
  %18 = getelementptr inbounds nuw i8, ptr %12, i64 72
  %19 = load double, ptr %18, align 8, !tbaa !133
  %20 = fadd double %1, %19
  store double %20, ptr %18, align 8, !tbaa !133
  %21 = getelementptr inbounds nuw i8, ptr %12, i64 80
  %22 = load double, ptr %21, align 8, !tbaa !135
  %23 = fadd double %2, %22
  store double %23, ptr %21, align 8, !tbaa !135
  br label %24

24:                                               ; preds = %17, %13, %3
  %25 = getelementptr inbounds nuw i8, ptr %5, i64 236
  %26 = load i32, ptr %25, align 4, !tbaa !58
  %.not2728 = icmp slt i32 %26, 1
  br i1 %.not2728, label %._crit_edge, label %.lr.ph

.lr.ph:                                           ; preds = %24, %.lr.ph
  %indvars.iv = phi i64 [ %indvars.iv.next, %.lr.ph ], [ 1, %24 ]
  %27 = phi ptr [ %32, %.lr.ph ], [ %5, %24 ]
  %28 = getelementptr inbounds nuw i8, ptr %27, i64 240
  %29 = load ptr, ptr %28, align 8, !tbaa !68
  %30 = getelementptr inbounds nuw ptr, ptr %29, i64 %indvars.iv
  %31 = load ptr, ptr %30, align 8, !tbaa !16
  tail call fastcc void @shiftGraph(ptr noundef %31, double noundef %1, double noundef %2)
  %indvars.iv.next = add nuw nsw i64 %indvars.iv, 1
  %32 = load ptr, ptr %4, align 8, !tbaa !21
  %33 = getelementptr inbounds nuw i8, ptr %32, i64 236
  %34 = load i32, ptr %33, align 4, !tbaa !58
  %35 = sext i32 %34 to i64
  %.not27.not = icmp slt i64 %indvars.iv, %35
  br i1 %.not27.not, label %.lr.ph, label %._crit_edge, !llvm.loop !161

._crit_edge:                                      ; preds = %.lr.ph, %24
  ret void
}